; ModuleID = 'source-C-CXX/12/1857.cpp'
source_filename = "source-C-CXX/12/1857.cpp"
target datalayout = "e-m:e-p270:32:32-p271:32:32-p272:64:64-i64:64-f80:128-n8:16:32:64-S128"
target triple = "x86_64-pc-linux-gnu"

%"class.std::ios_base::Init" = type { i8 }
%"class.std::basic_istream" = type { i32 (...)**, i64, %"class.std::basic_ios" }
%"class.std::basic_ios" = type { %"class.std::ios_base", %"class.std::basic_ostream"*, i8, i8, %"class.std::basic_streambuf"*, %"class.std::ctype"*, %"class.std::num_put"*, %"class.std::num_get"* }
%"class.std::ios_base" = type { i32 (...)**, i64, i64, i32, i32, i32, %"struct.std::ios_base::_Callback_list"*, %"struct.std::ios_base::_Words", [8 x %"struct.std::ios_base::_Words"], i32, %"struct.std::ios_base::_Words"*, %"class.std::locale" }
%"struct.std::ios_base::_Callback_list" = type { %"struct.std::ios_base::_Callback_list"*, void (i32, %"class.std::ios_base"*, i32)*, i32, i32 }
%"struct.std::ios_base::_Words" = type { i8*, i64 }
%"class.std::locale" = type { %"class.std::locale::_Impl"* }
%"class.std::locale::_Impl" = type { i32, %"class.std::locale::facet"**, i64, %"class.std::locale::facet"**, i8** }
%"class.std::locale::facet" = type <{ i32 (...)**, i32, [4 x i8] }>
%"class.std::basic_ostream" = type { i32 (...)**, %"class.std::basic_ios" }
%"class.std::basic_streambuf" = type { i32 (...)**, i8*, i8*, i8*, i8*, i8*, i8*, %"class.std::locale" }
%"class.std::ctype" = type <{ %"class.std::locale::facet.base", [4 x i8], %struct.__locale_struct*, i8, [7 x i8], i32*, i32*, i16*, i8, [256 x i8], [256 x i8], i8, [6 x i8] }>
%"class.std::locale::facet.base" = type <{ i32 (...)**, i32 }>
%struct.__locale_struct = type { [13 x %struct.__locale_data*], i16*, i32*, i32*, [13 x i8*] }
%struct.__locale_data = type opaque
%"class.std::num_put" = type { %"class.std::locale::facet.base", [4 x i8] }
%"class.std::num_get" = type { %"class.std::locale::facet.base", [4 x i8] }

@_ZStL8__ioinit = internal global %"class.std::ios_base::Init" zeroinitializer, align 1
@__dso_handle = external hidden global i8
@_ZSt3cin = external global %"class.std::basic_istream", align 8
@_ZSt4cout = external global %"class.std::basic_ostream", align 8
@.str = private unnamed_addr constant [2 x i8] c" \00", align 1
@llvm.global_ctors = appending global [1 x { i32, void ()*, i8* }] [{ i32, void ()*, i8* } { i32 65535, void ()* @_GLOBAL__sub_I_1857.cpp, i8* null }]

declare void @_ZNSt8ios_base4InitC1Ev(%"class.std::ios_base::Init"* nonnull align 1 dereferenceable(1)) unnamed_addr #0

; Function Attrs: nounwind
declare void @_ZNSt8ios_base4InitD1Ev(%"class.std::ios_base::Init"* nonnull align 1 dereferenceable(1)) unnamed_addr #1

; Function Attrs: nofree nounwind
declare i32 @__cxa_atexit(void (i8*)*, i8*, i8*) local_unnamed_addr #2

; Function Attrs: mustprogress norecurse sspstrong uwtable
define dso_local i32 @main() local_unnamed_addr #3 {
  %1 = alloca [20001 x i32], align 16
  %2 = alloca i32, align 4
  %3 = bitcast [20001 x i32]* %1 to i8*
  call void @llvm.lifetime.start.p0i8(i64 80004, i8* nonnull %3) #7
  call void @llvm.memset.p0i8.i64(i8* noundef nonnull align 16 dereferenceable(80004) %3, i8 0, i64 80004, i1 false)
  %4 = bitcast i32* %2 to i8*
  call void @llvm.lifetime.start.p0i8(i64 4, i8* nonnull %4) #7
  %5 = call nonnull align 8 dereferenceable(16) %"class.std::basic_istream"* @_ZNSirsERi(%"class.std::basic_istream"* nonnull align 8 dereferenceable(16) @_ZSt3cin, i32* nonnull align 4 dereferenceable(4) %2)
  %6 = load i32, i32* %2, align 4, !tbaa !5
  %7 = icmp slt i32 %6, 1
  br i1 %7, label %60, label %18

8:                                                ; preds = %18
  %9 = icmp slt i32 %23, 1
  br i1 %9, label %60, label %10

10:                                               ; preds = %8
  %11 = add nuw i32 %23, 1
  %12 = zext i32 %11 to i64
  %13 = add nsw i64 %12, -1
  %14 = and i64 %13, 1
  %15 = icmp eq i32 %11, 2
  %16 = and i64 %13, -2
  %17 = icmp eq i64 %14, 0
  br label %26

18:                                               ; preds = %0, %18
  %19 = phi i64 [ %22, %18 ], [ 1, %0 ]
  %20 = getelementptr inbounds [20001 x i32], [20001 x i32]* %1, i64 0, i64 %19
  %21 = call nonnull align 8 dereferenceable(16) %"class.std::basic_istream"* @_ZNSirsERi(%"class.std::basic_istream"* nonnull align 8 dereferenceable(16) @_ZSt3cin, i32* nonnull align 4 dereferenceable(4) %20)
  %22 = add nuw nsw i64 %19, 1
  %23 = load i32, i32* %2, align 4, !tbaa !5
  %24 = sext i32 %23 to i64
  %25 = icmp slt i64 %19, %24
  br i1 %25, label %18, label %8, !llvm.loop !9

26:                                               ; preds = %10, %57
  %27 = phi i64 [ 1, %10 ], [ %58, %57 ]
  %28 = getelementptr inbounds [20001 x i32], [20001 x i32]* %1, i64 0, i64 %27
  br i1 %15, label %47, label %29

29:                                               ; preds = %26, %84
  %30 = phi i64 [ %85, %84 ], [ 1, %26 ]
  %31 = phi i64 [ %86, %84 ], [ %16, %26 ]
  %32 = load i32, i32* %28, align 4, !tbaa !5
  %33 = getelementptr inbounds [20001 x i32], [20001 x i32]* %1, i64 0, i64 %30
  %34 = load i32, i32* %33, align 4, !tbaa !5
  %35 = icmp eq i32 %32, %34
  %36 = icmp ugt i64 %30, %27
  %37 = select i1 %35, i1 %36, i1 false
  br i1 %37, label %38, label %39

38:                                               ; preds = %29
  store i32 0, i32* %33, align 4, !tbaa !5
  br label %39

39:                                               ; preds = %29, %38
  %40 = add nuw nsw i64 %30, 1
  %41 = load i32, i32* %28, align 4, !tbaa !5
  %42 = getelementptr inbounds [20001 x i32], [20001 x i32]* %1, i64 0, i64 %40
  %43 = load i32, i32* %42, align 4, !tbaa !5
  %44 = icmp eq i32 %41, %43
  %45 = icmp uge i64 %30, %27
  %46 = select i1 %44, i1 %45, i1 false
  br i1 %46, label %83, label %84

47:                                               ; preds = %84, %26
  %48 = phi i64 [ 1, %26 ], [ %85, %84 ]
  br i1 %17, label %57, label %49

49:                                               ; preds = %47
  %50 = load i32, i32* %28, align 4, !tbaa !5
  %51 = getelementptr inbounds [20001 x i32], [20001 x i32]* %1, i64 0, i64 %48
  %52 = load i32, i32* %51, align 4, !tbaa !5
  %53 = icmp eq i32 %50, %52
  %54 = icmp ugt i64 %48, %27
  %55 = select i1 %53, i1 %54, i1 false
  br i1 %55, label %56, label %57

56:                                               ; preds = %49
  store i32 0, i32* %51, align 4, !tbaa !5
  br label %57

57:                                               ; preds = %56, %49, %47
  %58 = add nuw nsw i64 %27, 1
  %59 = icmp eq i64 %58, %12
  br i1 %59, label %60, label %26, !llvm.loop !11

60:                                               ; preds = %57, %0, %8
  %61 = getelementptr inbounds [20001 x i32], [20001 x i32]* %1, i64 0, i64 1
  %62 = load i32, i32* %61, align 4, !tbaa !5
  %63 = call nonnull align 8 dereferenceable(8) %"class.std::basic_ostream"* @_ZNSolsEi(%"class.std::basic_ostream"* nonnull align 8 dereferenceable(8) @_ZSt4cout, i32 %62)
  %64 = load i32, i32* %2, align 4, !tbaa !5
  %65 = icmp slt i32 %64, 2
  br i1 %65, label %82, label %66

66:                                               ; preds = %60, %77
  %67 = phi i32 [ %78, %77 ], [ %64, %60 ]
  %68 = phi i64 [ %79, %77 ], [ 2, %60 ]
  %69 = getelementptr inbounds [20001 x i32], [20001 x i32]* %1, i64 0, i64 %68
  %70 = load i32, i32* %69, align 4, !tbaa !5
  %71 = icmp eq i32 %70, 0
  br i1 %71, label %77, label %72

72:                                               ; preds = %66
  %73 = call nonnull align 8 dereferenceable(8) %"class.std::basic_ostream"* @_ZSt16__ostream_insertIcSt11char_traitsIcEERSt13basic_ostreamIT_T0_ES6_PKS3_l(%"class.std::basic_ostream"* nonnull align 8 dereferenceable(8) @_ZSt4cout, i8* nonnull getelementptr inbounds ([2 x i8], [2 x i8]* @.str, i64 0, i64 0), i64 1)
  %74 = load i32, i32* %69, align 4, !tbaa !5
  %75 = call nonnull align 8 dereferenceable(8) %"class.std::basic_ostream"* @_ZNSolsEi(%"class.std::basic_ostream"* nonnull align 8 dereferenceable(8) @_ZSt4cout, i32 %74)
  %76 = load i32, i32* %2, align 4, !tbaa !5
  br label %77

77:                                               ; preds = %66, %72
  %78 = phi i32 [ %67, %66 ], [ %76, %72 ]
  %79 = add nuw nsw i64 %68, 1
  %80 = sext i32 %78 to i64
  %81 = icmp slt i64 %68, %80
  br i1 %81, label %66, label %82, !llvm.loop !12

82:                                               ; preds = %77, %60
  call void @llvm.lifetime.end.p0i8(i64 4, i8* nonnull %4) #7
  call void @llvm.lifetime.end.p0i8(i64 80004, i8* nonnull %3) #7
  ret i32 0

83:                                               ; preds = %39
  store i32 0, i32* %42, align 4, !tbaa !5
  br label %84

84:                                               ; preds = %83, %39
  %85 = add nuw nsw i64 %30, 2
  %86 = add i64 %31, -2
  %87 = icmp eq i64 %86, 0
  br i1 %87, label %47, label %29, !llvm.loop !13
}

; Function Attrs: argmemonly mustprogress nofree nosync nounwind willreturn
declare void @llvm.lifetime.start.p0i8(i64 immarg, i8* nocapture) #4

; Function Attrs: argmemonly mustprogress nofree nounwind willreturn writeonly
declare void @llvm.memset.p0i8.i64(i8* nocapture writeonly, i8, i64, i1 immarg) #5

declare nonnull align 8 dereferenceable(16) %"class.std::basic_istream"* @_ZNSirsERi(%"class.std::basic_istream"* nonnull align 8 dereferenceable(16), i32* nonnull align 4 dereferenceable(4)) local_unnamed_addr #0

declare nonnull align 8 dereferenceable(8) %"class.std::basic_ostream"* @_ZNSolsEi(%"class.std::basic_ostream"* nonnull align 8 dereferenceable(8), i32) local_unnamed_addr #0

; Function Attrs: argmemonly mustprogress nofree nosync nounwind willreturn
declare void @llvm.lifetime.end.p0i8(i64 immarg, i8* nocapture) #4

declare nonnull align 8 dereferenceable(8) %"class.std::basic_ostream"* @_ZSt16__ostream_insertIcSt11char_traitsIcEERSt13basic_ostreamIT_T0_ES6_PKS3_l(%"class.std::basic_ostream"* nonnull align 8 dereferenceable(8), i8*, i64) local_unnamed_addr #0

; Function Attrs: sspstrong uwtable
define internal void @_GLOBAL__sub_I_1857.cpp() #6 section ".text.startup" {
  tail call void @_ZNSt8ios_base4InitC1Ev(%"class.std::ios_base::Init"* nonnull align 1 dereferenceable(1) @_ZStL8__ioinit)
  %1 = tail call i32 @__cxa_atexit(void (i8*)* bitcast (void (%"class.std::ios_base::Init"*)* @_ZNSt8ios_base4InitD1Ev to void (i8*)*), i8* getelementptr inbounds (%"class.std::ios_base::Init", %"class.std::ios_base::Init"* @_ZStL8__ioinit, i64 0, i32 0), i8* nonnull @__dso_handle) #7
  ret void
}


!llvm.module.flags = !{!0, !1, !2, !3}
!llvm.ident = !{!4}

!0 = !{i32 1, !"wchar_size", i32 4}
!1 = !{i32 7, !"PIC Level", i32 2}
!2 = !{i32 7, !"PIE Level", i32 2}
!3 = !{i32 7, !"uwtable", i32 1}
!4 = !{!"clang version 13.0.0"}
!5 = !{!6, !6, i64 0}
!6 = !{!"int", !7, i64 0}
!7 = !{!"omnipotent char", !8, i64 0}
!8 = !{!"Simple C++ TBAA"}
!9 = distinct !{!9, !10}
!10 = !{!"llvm.loop.mustprogress"}
!11 = distinct !{!11, !10}
!12 = distinct !{!12, !10}
!13 = distinct !{!13, !10}
